; Function Attrs: nounwind uwtable
define i32 @BN_mod_lshift1_quick(ptr noundef %0, ptr noundef %1, ptr noundef %2) local_unnamed_addr #0 {
  %4 = tail call i32 @BN_lshift1(ptr noundef %0, ptr noundef %1) #4
  %.not = icmp eq i32 %4, 0
  br i1 %.not, label %10, label %5

5:                                                ; preds = %3
  %6 = tail call i32 @BN_cmp(ptr noundef %0, ptr noundef %2) #4
  %7 = icmp sgt i32 %6, -1
  br i1 %7, label %8, label %10

8:                                                ; preds = %5
  %9 = tail call i32 @BN_sub(ptr noundef %0, ptr noundef %0, ptr noundef %2) #4
  br label %10

10:                                               ; preds = %5, %3, %8
  %.0 = phi i32 [ %9, %8 ], [ 0, %3 ], [ 1, %5 ]
  ret i32 %.0
}